; Function Attrs: mustprogress uwtable
define void @_ZN7rocksdb14MockFileSystem12NewDirectoryERKNSt7__cxx1112basic_stringIcSt11char_traitsIcESaIcEEERKNS_9IOOptionsEPSt10unique_ptrINS_11FSDirectoryESt14default_deleteISD_EEPNS_14IODebugContextE(ptr dead_on_unwind noalias writable writeonly sret(%"class.rocksdb::IOStatus") align 8 captures(none) initializes((0, 6), (8, 16)) %0, ptr nonnull readnone align 8 captures(none) %1, ptr nonnull readnone align 8 captures(none) %2, ptr nonnull readnone align 8 captures(none) %3, ptr noundef captures(none) %4, ptr readnone captures(none) %5) unnamed_addr #1 align 2 personality ptr @__gxx_personality_v0 {
  %7 = tail call noalias noundef nonnull dereferenceable(8) ptr @_Znwm(i64 noundef 8) #36
  store ptr getelementptr inbounds nuw inrange(-16, 48) (i8, ptr @_ZTVN7rocksdb12_GLOBAL__N_116MockEnvDirectoryE, i64 16), ptr %7, align 8, !tbaa !46
  %8 = load ptr, ptr %4, align 8, !tbaa !272
  store ptr %7, ptr %4, align 8, !tbaa !272
  %.not.i.i = icmp eq ptr %8, null
  br i1 %.not.i.i, label %_ZNSt10unique_ptrIN7rocksdb11FSDirectoryESt14default_deleteIS1_EE5resetEPS1_.exit, label %_ZNKSt14default_deleteIN7rocksdb11FSDirectoryEEclEPS1_.exit.i.i

_ZNKSt14default_deleteIN7rocksdb11FSDirectoryEEclEPS1_.exit.i.i: ; preds = %6
  %9 = load ptr, ptr %8, align 8, !tbaa !46
  %10 = getelementptr inbounds nuw i8, ptr %9, i64 8
  %11 = load ptr, ptr %10, align 8
  tail call void %11(ptr noundef nonnull align 8 dereferenceable(8) %8) #32
  br label %_ZNSt10unique_ptrIN7rocksdb11FSDirectoryESt14default_deleteIS1_EE5resetEPS1_.exit

_ZNSt10unique_ptrIN7rocksdb11FSDirectoryESt14default_deleteIS1_EE5resetEPS1_.exit: ; preds = %6, %_ZNKSt14default_deleteIN7rocksdb11FSDirectoryEEclEPS1_.exit.i.i
  store i8 0, ptr %0, align 8, !tbaa !114, !alias.scope !274
  %12 = getelementptr inbounds nuw i8, ptr %0, i64 1
  store i8 0, ptr %12, align 1, !tbaa !139, !alias.scope !274
  %13 = getelementptr inbounds nuw i8, ptr %0, i64 2
  %14 = getelementptr inbounds nuw i8, ptr %0, i64 8
  store ptr null, ptr %14, align 8, !tbaa !143, !alias.scope !274
  store i32 0, ptr %13, align 2, !alias.scope !274
  ret void
}